Certificate:
    Data:
        Version: 3 (0x2)
        Serial Number: 4096 (0x1000)
    Signature Algorithm: md5WithRSAEncryption
        Issuer: C=US, ST=UTAH, L=SALT LAKE CITY, O=UNIVERSITY OF UTAH, OU=MSD
        Validity
            Not Before: Mar 20 20:57:00 2023 GMT
            Not After : Mar 19 20:57:00 2024 GMT
        Subject: C=US, ST=UTAH, O=UNIVERSITY OF UTAH, CN=server
        Subject Public Key Info:
            Public Key Algorithm: rsaEncryption
                RSA Public-Key: (4096 bit)
                Modulus:
                    00:c7:1b:b3:85:e1:99:9d:e3:c5:cf:6a:ea:90:98:
                    7f:ce:8c:58:0e:fc:a3:e4:38:11:e1:c7:66:e9:e0:
                    00:29:11:de:bc:77:62:4e:06:da:93:58:1e:67:c3:
                    8e:82:5d:ef:e1:b8:1a:a8:b4:c1:bc:ca:f4:7f:81:
                    70:e2:de:e5:21:0f:28:a9:6e:9f:d4:8e:51:28:74:
                    3f:28:d8:7a:1d:b9:4d:be:fa:7d:68:0d:88:92:b4:
                    3f:d3:38:64:18:83:0c:fe:86:50:87:9f:c6:5d:ad:
                    0e:77:9c:94:f1:c1:8c:e3:a6:f5:a1:d5:16:61:ed:
                    6c:ec:bf:fb:8a:e6:02:7a:9f:bf:1d:6c:e4:1f:9a:
                    ff:c2:2b:78:83:c5:72:c0:8c:40:7c:36:6c:15:4d:
                    19:9c:c1:7c:04:41:8e:80:82:45:bb:a3:a8:c6:75:
                    f6:38:e5:0c:3e:5e:08:9c:91:6d:1d:e3:52:f3:f7:
                    0d:2e:8b:e9:b6:b2:8d:e0:33:da:8f:35:62:99:69:
                    59:eb:1d:c3:17:c1:c4:a0:4f:08:62:39:24:ee:92:
                    8b:03:ae:40:b7:e3:9d:38:a1:26:f8:7b:9f:a6:1d:
                    d5:85:1a:2e:fc:64:97:b2:a9:f2:bb:8d:b7:3e:95:
                    48:fd:07:f4:cd:24:6e:e8:35:91:b9:83:c6:e1:5f:
                    15:67:79:6b:43:81:6e:a5:b6:16:dd:2d:94:ae:75:
                    ae:6a:90:0a:f5:61:fc:ee:90:cd:1e:5f:c9:21:37:
                    b5:f1:3b:4f:a8:0f:73:e1:f0:3c:b0:34:e7:00:04:
                    00:50:3a:ed:46:12:ae:94:c3:ac:c1:11:0c:2a:de:
                    5d:f2:14:5a:b8:47:59:43:27:b4:7a:d0:0b:d6:f2:
                    a9:84:2f:34:30:93:0c:e9:8a:a2:cc:83:b1:da:a3:
                    dd:46:c3:ea:16:6f:48:8b:fc:f6:73:0c:61:d0:33:
                    e6:57:23:5d:09:e9:8e:1e:5c:18:b0:02:50:38:5b:
                    a5:f3:20:53:75:7a:40:e9:d1:63:9a:a7:ac:a6:15:
                    93:55:11:7f:24:9f:51:6e:5b:d7:8d:0a:9c:fd:df:
                    bf:93:5f:30:e5:0a:d1:e1:2d:85:a2:35:e0:f7:28:
                    e0:a0:f9:e5:eb:81:09:2d:17:01:39:65:f6:d3:6e:
                    64:0e:e5:86:f0:35:49:55:11:d1:f0:a3:64:cf:08:
                    46:72:ac:7e:88:3c:77:bc:96:66:d6:64:96:03:56:
                    9b:4f:fe:7b:46:b5:4d:8b:29:b1:0b:9c:93:f1:84:
                    29:fc:db:0a:74:d7:4d:cb:a0:ab:0e:05:4c:a2:4b:
                    4f:eb:64:e0:06:88:9c:1b:75:c3:c5:fb:dd:b4:b3:
                    71:f1:7d
                Exponent: 65537 (0x10001)
        X509v3 extensions:
            X509v3 Basic Constraints: 
                CA:FALSE
            Netscape Comment: 
                OpenSSL Generated Certificate
            X509v3 Subject Key Identifier: 
                12:87:C8:9C:78:AD:0A:ED:15:6C:3B:CF:74:22:B9:3A:84:38:D0:42
            X509v3 Authority Key Identifier: 
                DirName:/C=US/ST=UTAH/L=SALT LAKE CITY/O=UNIVERSITY OF UTAH/OU=MSD
                serial:FB:F0:78:2A:A3:BA:71:67

    Signature Algorithm: md5WithRSAEncryption
         ab:11:e9:00:aa:95:eb:2e:ac:31:35:8f:ed:d5:91:fb:c3:30:
         8a:62:db:57:a6:1f:cd:ec:6e:f9:43:12:f3:40:b4:c7:e3:ce:
         c6:a0:f5:8c:67:20:e4:b1:8a:10:77:7a:b2:5e:64:94:c9:6b:
         77:85:6d:70:04:b4:a0:b2:ac:f5:c8:a2:19:32:ed:81:07:0b:
         22:b3:bc:5f:bb:30:99:cf:51:86:e7:8c:38:8f:77:2d:5c:84:
         84:2a:da:4e:8e:93:d0:1a:07:e0:5f:37:bf:dd:47:b8:66:55:
         72:81:d9:c0:39:79:7e:10:de:0a:15:5c:7d:9c:97:13:84:a9:
         8e:c1:04:c9:83:3c:bb:9b:05:09:af:4e:69:09:13:a8:63:88:
         5b:a5:f3:84:41:3d:d1:14:83:1d:6c:09:8c:d0:7d:df:ab:97:
         e8:b1:bf:d5:22:02:81:17:ee:5f:4f:ed:9a:06:5b:d4:07:d1:
         8d:0b:08:d0:65:d6:e9:01:04:76:b5:58:e6:c8:e4:cf:5f:a2:
         6a:f5:6c:55:f4:44:5c:38:c0:1a:44:99:b7:17:a2:bb:56:ed:
         de:ab:08:21:f7:1c:ad:69:f0:a3:ea:3f:86:08:d2:67:b7:3c:
         01:c5:6d:a4:58:51:ca:85:13:c2:0a:72:ff:d6:da:60:25:2e:
         d4:b1:e2:3a:4c:d8:fc:ad:e3:93:50:da:ba:e9:77:c6:b9:c0:
         ac:2b:f5:54:f3:af:f7:df:76:f7:9f:8d:49:8d:13:f0:59:c1:
         41:82:c5:76:36:cb:b5:a2:e8:8a:50:41:cb:e7:1f:a1:8d:48:
         b7:31:3c:c4:e7:70:b4:b9:53:65:38:09:aa:34:cd:83:15:89:
         44:a0:a7:f4:24:18:86:14:1c:b3:b6:04:18:e3:f8:1a:84:11:
         12:9d:bc:e8:9a:6d:af:df:68:dc:c4:1e:bc:d4:e6:de:76:73:
         6e:57:65:5d:ca:16:e4:20:ad:72:ab:92:b6:22:07:8f:52:8a:
         91:6b:53:57:d9:e0:04:18:57:e7:37:14:04:42:74:03:48:e5:
         42:d1:99:4e:5a:0e:ed:b4:61:f0:b9:da:d6:4a:ff:60:82:07:
         d3:f1:97:67:fa:7f:72:36:b4:d3:ba:1d:90:97:70:47:56:ba:
         85:e8:87:30:6d:f1:d0:7c:dc:7b:ae:75:77:a4:8a:23:a0:d8:
         dd:61:2c:9e:76:56:30:3d:a8:27:cb:49:5e:f4:ce:9d:0c:53:
         a3:cb:fb:27:9f:f4:1c:a3:bb:be:be:5d:9f:63:40:ff:f3:6c:
         01:9f:20:14:cc:46:23:61:a0:e0:13:81:80:c0:0d:e5:41:a1:
         ef:71:1e:4e:35:e1:39:99
-----BEGIN CERTIFICATE-----
MIIF/jCCA+agAwIBAgICEAAwDQYJKoZIhvcNAQEEBQAwYDELMAkGA1UEBhMCVVMx
DTALBgNVBAgMBFVUQUgxFzAVBgNVBAcMDlNBTFQgTEFLRSBDSVRZMRswGQYDVQQK
DBJVTklWRVJTSVRZIE9GIFVUQUgxDDAKBgNVBAsMA01TRDAeFw0yMzAzMjAyMDU3
MDBaFw0yNDAzMTkyMDU3MDBaMEoxCzAJBgNVBAYTAlVTMQ0wCwYDVQQIDARVVEFI
MRswGQYDVQQKDBJVTklWRVJTSVRZIE9GIFVUQUgxDzANBgNVBAMMBnNlcnZlcjCC
AiIwDQYJKoZIhvcNAQEBBQADggIPADCCAgoCggIBAMcbs4XhmZ3jxc9q6pCYf86M
WA78o+Q4EeHHZungACkR3rx3Yk4G2pNYHmfDjoJd7+G4Gqi0wbzK9H+BcOLe5SEP
KKlun9SOUSh0PyjYeh25Tb76fWgNiJK0P9M4ZBiDDP6GUIefxl2tDneclPHBjOOm
9aHVFmHtbOy/+4rmAnqfvx1s5B+a/8IreIPFcsCMQHw2bBVNGZzBfARBjoCCRbuj
qMZ19jjlDD5eCJyRbR3jUvP3DS6L6bayjeAz2o81YplpWesdwxfBxKBPCGI5JO6S
iwOuQLfjnTihJvh7n6Yd1YUaLvxkl7Kp8ruNtz6VSP0H9M0kbug1kbmDxuFfFWd5
a0OBbqW2Ft0tlK51rmqQCvVh/O6QzR5fySE3tfE7T6gPc+HwPLA05wAEAFA67UYS
rpTDrMERDCreXfIUWrhHWUMntHrQC9byqYQvNDCTDOmKosyDsdqj3UbD6hZvSIv8
9nMMYdAz5lcjXQnpjh5cGLACUDhbpfMgU3V6QOnRY5qnrKYVk1URfySfUW5b140K
nP3fv5NfMOUK0eEthaI14Pco4KD55euBCS0XATll9tNuZA7lhvA1SVUR0fCjZM8I
RnKsfog8d7yWZtZklgNWm0/+e0a1TYspsQuck/GEKfzbCnTXTcugqw4FTKJLT+tk
4AaInBt1w8X73bSzcfF9AgMBAAGjgdcwgdQwCQYDVR0TBAIwADAsBglghkgBhvhC
AQ0EHxYdT3BlblNTTCBHZW5lcmF0ZWQgQ2VydGlmaWNhdGUwHQYDVR0OBBYEFBKH
yJx4rQrtFWw7z3QiuTqEONBCMHoGA1UdIwRzMHGhZKRiMGAxCzAJBgNVBAYTAlVT
MQ0wCwYDVQQIDARVVEFIMRcwFQYDVQQHDA5TQUxUIExBS0UgQ0lUWTEbMBkGA1UE
CgwSVU5JVkVSU0lUWSBPRiBVVEFIMQwwCgYDVQQLDANNU0SCCQD78Hgqo7pxZzAN
BgkqhkiG9w0BAQQFAAOCAgEAqxHpAKqV6y6sMTWP7dWR+8MwimLbV6Yfzexu+UMS
80C0x+POxqD1jGcg5LGKEHd6sl5klMlrd4VtcAS0oLKs9ciiGTLtgQcLIrO8X7sw
mc9RhueMOI93LVyEhCraTo6T0BoH4F83v91HuGZVcoHZwDl5fhDeChVcfZyXE4Sp
jsEEyYM8u5sFCa9OaQkTqGOIW6XzhEE90RSDHWwJjNB936uX6LG/1SICgRfuX0/t
mgZb1AfRjQsI0GXW6QEEdrVY5sjkz1+iavVsVfREXDjAGkSZtxeiu1bt3qsIIfcc
rWnwo+o/hgjSZ7c8AcVtpFhRyoUTwgpy/9baYCUu1LHiOkzY/K3jk1Dauul3xrnA
rCv1VPOv999295+NSY0T8FnBQYLFdjbLtaLoilBBy+cfoY1ItzE8xOdwtLlTZTgJ
qjTNgxWJRKCn9CQYhhQcs7YEGOP4GoQREp286Jptr99o3MQevNTm3nZzbldlXcoW
5CCtcquStiIHj1KKkWtTV9ngBBhX5zcUBEJ0A0jlQtGZTloO7bRh8Lna1kr/YIIH
0/GXZ/p/cja007odkJdwR1a6heiHMG3x0Hzce651d6SKI6DY3WEsnnZWMD2oJ8tJ
XvTOnQxTo8v7J5/0HKO7vr5dn2NA//NsAZ8gFMxGI2Gg4BOBgMAN5UGh73EeTjXh
OZk=
-----END CERTIFICATE-----
