Certificate:
    Data:
        Version: 3 (0x2)
        Serial Number: 4097 (0x1001)
    Signature Algorithm: md5WithRSAEncryption
        Issuer: C=US, ST=UTAH, L=SALT LAKE CITY, O=UNIVERSITY OF UTAH, OU=MSD
        Validity
            Not Before: Mar 20 20:57:38 2023 GMT
            Not After : Mar 19 20:57:38 2024 GMT
        Subject: C=US, ST=UTAH, O=UNIVERSITY OF UTAH, CN=client
        Subject Public Key Info:
            Public Key Algorithm: rsaEncryption
                RSA Public-Key: (4096 bit)
                Modulus:
                    00:b0:b6:06:af:4c:81:c1:cb:a9:1b:33:4e:0e:55:
                    a3:03:95:ce:a0:8b:5b:e3:21:31:0d:b6:20:85:46:
                    fd:92:8a:b9:c0:fe:27:ca:32:1c:28:b9:88:b6:2f:
                    5b:95:e5:bd:3c:ed:82:29:93:2b:14:c5:5c:d3:77:
                    8f:fb:81:ba:15:09:d7:ae:61:77:f0:cb:fd:84:1b:
                    58:d9:91:31:f4:b8:69:f7:03:6d:a3:ee:3b:a0:11:
                    54:61:6c:7f:8e:90:3f:c5:98:50:4f:33:57:ac:01:
                    62:bc:ac:b2:63:60:23:4a:4d:42:9a:76:49:18:d0:
                    82:fc:80:a5:83:db:fc:96:af:32:69:62:1c:b3:30:
                    d2:3e:17:53:d4:21:52:ad:da:62:3e:e8:31:47:73:
                    57:a5:de:26:1c:c9:e8:a1:72:05:11:c1:21:80:aa:
                    81:04:e9:fb:83:c7:86:91:9b:91:12:96:0a:e0:63:
                    8f:81:41:7b:c2:4a:3e:6d:93:bb:bc:43:72:f9:2e:
                    0e:fd:ca:9e:a4:40:b5:04:72:ec:95:12:b6:4a:c9:
                    a6:e8:21:05:d1:08:11:6d:89:7b:7e:a5:2c:67:c0:
                    f1:91:f6:ba:f0:f5:54:52:66:e2:85:eb:93:3c:d5:
                    29:35:e7:a4:df:60:43:15:eb:39:12:94:d5:b3:36:
                    8c:7f:01:d6:22:fa:06:3f:a6:ef:bf:06:ea:44:85:
                    2b:d7:e8:68:33:f8:8e:a2:f8:e7:ac:85:a4:1e:22:
                    79:26:e7:b6:2b:fd:ac:e6:4a:b5:84:a1:bf:49:0a:
                    1f:ff:d1:c9:17:c4:9f:04:c3:36:a5:1b:a4:7d:53:
                    99:e7:63:f2:34:f1:22:a6:e0:8e:3d:8a:22:39:2a:
                    b8:51:8d:d2:24:7d:19:cb:be:67:8f:43:3c:a2:cc:
                    46:e3:03:58:c7:75:0c:27:b2:81:4f:cc:a9:5f:3b:
                    20:f8:73:b5:fc:66:03:60:e0:b5:c6:ff:bd:e5:3e:
                    fd:ec:55:dd:3b:c8:cf:f7:bf:27:eb:0b:67:7e:c1:
                    09:65:e2:78:91:b7:99:99:d0:89:d7:26:b3:e8:51:
                    32:cd:eb:af:40:2a:ea:d7:30:f7:02:b1:28:85:95:
                    2c:92:1f:ce:79:25:ad:ff:ce:79:bd:9a:58:d3:a5:
                    5b:c4:75:2b:12:d8:9a:79:b0:c6:45:29:87:5a:85:
                    b4:25:99:8a:01:0b:77:ec:47:de:a6:c2:cc:7a:22:
                    18:df:9b:b3:2e:99:cb:00:e1:7d:e0:60:46:33:d1:
                    a8:34:a8:6f:70:4f:00:46:25:2c:12:94:bb:e9:0a:
                    b0:3c:c7:2f:2c:29:00:4c:bb:36:0c:a6:94:69:43:
                    cd:ad:29
                Exponent: 65537 (0x10001)
        X509v3 extensions:
            X509v3 Basic Constraints: 
                CA:FALSE
            Netscape Comment: 
                OpenSSL Generated Certificate
            X509v3 Subject Key Identifier: 
                CB:66:EA:3C:C5:EC:75:8F:6A:34:97:77:ED:5A:CC:8E:7C:E7:B6:CC
            X509v3 Authority Key Identifier: 
                DirName:/C=US/ST=UTAH/L=SALT LAKE CITY/O=UNIVERSITY OF UTAH/OU=MSD
                serial:FB:F0:78:2A:A3:BA:71:67

    Signature Algorithm: md5WithRSAEncryption
         99:11:d0:96:be:24:8a:da:e6:d0:ee:b2:25:e0:ca:90:15:13:
         89:bc:af:2a:a5:96:1b:62:da:9b:52:f2:ef:0b:98:2f:55:67:
         3c:de:3a:76:ca:92:83:dd:46:bc:3c:28:79:72:c2:f4:58:9c:
         9e:35:d2:4c:70:8b:8d:62:06:4f:e0:04:c6:f1:c7:40:61:04:
         d4:3d:8f:22:58:03:01:34:15:b8:de:1a:6e:d4:16:c1:3d:7f:
         3a:d3:e2:cc:5e:3d:4d:47:37:b9:ff:df:89:32:a8:07:72:5f:
         98:a0:ff:b1:c5:f2:26:80:80:ec:bb:6f:e0:22:77:2e:34:71:
         73:4c:08:82:40:2f:49:2e:f3:8f:bf:36:71:6d:cd:c7:46:ec:
         63:72:89:54:b3:fa:76:ec:b0:51:ba:c0:a1:72:6a:2d:67:bb:
         dd:a2:ce:1f:5d:af:cf:45:6b:20:42:eb:51:29:2e:33:13:5b:
         1f:bb:6c:33:d3:b6:50:91:cc:57:f6:4b:7f:7d:bc:ca:c1:1e:
         c8:38:a1:c5:63:5a:aa:1d:ce:12:90:01:04:09:50:85:8b:45:
         46:dd:c6:3a:10:11:06:2e:33:cc:41:75:85:f4:c6:16:54:cb:
         7c:f5:c8:b9:9f:72:75:a1:6c:28:44:3e:2f:4c:ec:c8:de:4b:
         02:49:7f:0e:16:23:bb:9f:ed:2c:38:bb:ad:fb:62:38:b5:bf:
         04:e9:5f:ca:6b:1a:47:d3:f7:27:21:b4:d2:ff:cd:9e:d2:60:
         5e:da:be:bf:e3:24:3a:0c:70:c5:7e:97:30:1e:fb:bb:2e:5a:
         37:8b:63:77:31:e4:d2:7a:e0:0c:c8:fc:1e:ba:3b:d8:77:b1:
         da:91:53:74:00:f2:f0:0a:ba:0b:00:ce:fb:a9:01:29:0f:ee:
         23:f9:b3:2f:e5:cd:eb:fc:f8:34:b8:be:b2:a3:c7:73:e7:dd:
         a9:62:44:fc:28:55:6e:fe:90:38:b9:e2:2e:dc:9d:7e:3d:63:
         1f:06:cd:05:14:7f:86:ea:92:63:07:83:17:a9:8b:bc:9c:06:
         dc:ee:54:78:e2:47:e4:7f:8c:e8:75:71:a0:39:6e:5d:70:1d:
         b7:81:e8:ad:aa:aa:3e:91:5c:9f:d7:11:a6:89:12:3b:48:93:
         a3:12:ba:59:fe:32:6e:72:12:7a:d2:66:2f:b7:85:19:e4:2d:
         cd:2d:aa:3e:b2:3c:df:69:c5:a2:92:e1:e2:36:8a:00:43:64:
         03:7b:65:57:bc:40:23:9f:4f:d5:97:8f:62:f2:0f:a0:39:af:
         a4:68:fd:c6:41:08:43:6c:d7:60:a7:28:ea:04:9a:df:ce:51:
         90:bb:a4:11:c1:b1:5a:b9
-----BEGIN CERTIFICATE-----
MIIF/jCCA+agAwIBAgICEAEwDQYJKoZIhvcNAQEEBQAwYDELMAkGA1UEBhMCVVMx
DTALBgNVBAgMBFVUQUgxFzAVBgNVBAcMDlNBTFQgTEFLRSBDSVRZMRswGQYDVQQK
DBJVTklWRVJTSVRZIE9GIFVUQUgxDDAKBgNVBAsMA01TRDAeFw0yMzAzMjAyMDU3
MzhaFw0yNDAzMTkyMDU3MzhaMEoxCzAJBgNVBAYTAlVTMQ0wCwYDVQQIDARVVEFI
MRswGQYDVQQKDBJVTklWRVJTSVRZIE9GIFVUQUgxDzANBgNVBAMMBmNsaWVudDCC
AiIwDQYJKoZIhvcNAQEBBQADggIPADCCAgoCggIBALC2Bq9MgcHLqRszTg5VowOV
zqCLW+MhMQ22IIVG/ZKKucD+J8oyHCi5iLYvW5XlvTztgimTKxTFXNN3j/uBuhUJ
165hd/DL/YQbWNmRMfS4afcDbaPuO6ARVGFsf46QP8WYUE8zV6wBYryssmNgI0pN
Qpp2SRjQgvyApYPb/JavMmliHLMw0j4XU9QhUq3aYj7oMUdzV6XeJhzJ6KFyBRHB
IYCqgQTp+4PHhpGbkRKWCuBjj4FBe8JKPm2Tu7xDcvkuDv3KnqRAtQRy7JUStkrJ
pughBdEIEW2Je36lLGfA8ZH2uvD1VFJm4oXrkzzVKTXnpN9gQxXrORKU1bM2jH8B
1iL6Bj+m778G6kSFK9foaDP4jqL456yFpB4ieSbntiv9rOZKtYShv0kKH//RyRfE
nwTDNqUbpH1Tmedj8jTxIqbgjj2KIjkquFGN0iR9Gcu+Z49DPKLMRuMDWMd1DCey
gU/MqV87IPhztfxmA2Dgtcb/veU+/exV3TvIz/e/J+sLZ37BCWXieJG3mZnQidcm
s+hRMs3rr0Aq6tcw9wKxKIWVLJIfznklrf/Oeb2aWNOlW8R1KxLYmnmwxkUph1qF
tCWZigELd+xH3qbCzHoiGN+bsy6ZywDhfeBgRjPRqDSob3BPAEYlLBKUu+kKsDzH
LywpAEy7NgymlGlDza0pAgMBAAGjgdcwgdQwCQYDVR0TBAIwADAsBglghkgBhvhC
AQ0EHxYdT3BlblNTTCBHZW5lcmF0ZWQgQ2VydGlmaWNhdGUwHQYDVR0OBBYEFMtm
6jzF7HWPajSXd+1azI5857bMMHoGA1UdIwRzMHGhZKRiMGAxCzAJBgNVBAYTAlVT
MQ0wCwYDVQQIDARVVEFIMRcwFQYDVQQHDA5TQUxUIExBS0UgQ0lUWTEbMBkGA1UE
CgwSVU5JVkVSU0lUWSBPRiBVVEFIMQwwCgYDVQQLDANNU0SCCQD78Hgqo7pxZzAN
BgkqhkiG9w0BAQQFAAOCAgEAmRHQlr4kitrm0O6yJeDKkBUTibyvKqWWG2Lam1Ly
7wuYL1VnPN46dsqSg91GvDwoeXLC9FicnjXSTHCLjWIGT+AExvHHQGEE1D2PIlgD
ATQVuN4abtQWwT1/OtPizF49TUc3uf/fiTKoB3JfmKD/scXyJoCA7Ltv4CJ3LjRx
c0wIgkAvSS7zj782cW3Nx0bsY3KJVLP6duywUbrAoXJqLWe73aLOH12vz0VrIELr
USkuMxNbH7tsM9O2UJHMV/ZLf328ysEeyDihxWNaqh3OEpABBAlQhYtFRt3GOhAR
Bi4zzEF1hfTGFlTLfPXIuZ9ydaFsKEQ+L0zsyN5LAkl/DhYju5/tLDi7rftiOLW/
BOlfymsaR9P3JyG00v/NntJgXtq+v+MkOgxwxX6XMB77uy5aN4tjdzHk0nrgDMj8
Hro72Hex2pFTdADy8Aq6CwDO+6kBKQ/uI/mzL+XN6/z4NLi+sqPHc+fdqWJE/ChV
bv6QOLniLtydfj1jHwbNBRR/huqSYweDF6mLvJwG3O5UeOJH5H+M6HVxoDluXXAd
t4HoraqqPpFcn9cRpokSO0iToxK6Wf4ybnISetJmL7eFGeQtzS2qPrI832nFopLh
4jaKAENkA3tlV7xAI59P1ZePYvIPoDmvpGj9xkEIQ2zXYKco6gSa385RkLukEcGx
Wrk=
-----END CERTIFICATE-----
